; Function Attrs: mustprogress uwtable
define hidden void @_ZNK3ue225RoseInstrCheckShufti16x165writeEPvRNS_14RoseEngineBlobERKSt13unordered_mapIPKNS_15RoseInstructionEjSt4hashIS7_ESt8equal_toIS7_ESaISt4pairIKS7_jEEE(ptr noundef nonnull align 8 dereferenceable(120) %0, ptr noundef writeonly captures(none) initializes((0, 112)) %1, ptr nonnull readnone align 8 captures(none) %2, ptr noundef nonnull readonly align 8 captures(none) dereferenceable(56) %3) unnamed_addr #5 align 2 personality ptr @__gxx_personality_v0 {
  tail call void @llvm.memset.p0.i64(ptr noundef nonnull align 4 dereferenceable(112) %1, i8 0, i64 112, i1 false)
  store i8 14, ptr %1, align 4
  %5 = getelementptr inbounds nuw i8, ptr %0, i64 8
  %6 = getelementptr inbounds nuw i8, ptr %1, i64 1
  tail call void @llvm.memmove.p0.p0.i64(ptr noundef nonnull align 1 dereferenceable(32) %6, ptr noundef nonnull align 8 dereferenceable(32) %5, i64 32, i1 false)
  %7 = getelementptr inbounds nuw i8, ptr %0, i64 40
  %8 = getelementptr inbounds nuw i8, ptr %1, i64 33
  tail call void @llvm.memmove.p0.p0.i64(ptr noundef nonnull align 1 dereferenceable(32) %8, ptr noundef nonnull align 8 dereferenceable(32) %7, i64 32, i1 false)
  %9 = getelementptr inbounds nuw i8, ptr %0, i64 72
  %10 = getelementptr inbounds nuw i8, ptr %1, i64 65
  tail call void @llvm.memmove.p0.p0.i64(ptr noundef nonnull align 1 dereferenceable(32) %10, ptr noundef nonnull align 8 dereferenceable(32) %9, i64 32, i1 false)
  %11 = getelementptr inbounds nuw i8, ptr %0, i64 104
  %12 = load i32, ptr %11, align 8
  %13 = getelementptr inbounds nuw i8, ptr %1, i64 100
  store i32 %12, ptr %13, align 4
  %14 = getelementptr inbounds nuw i8, ptr %0, i64 108
  %15 = load i32, ptr %14, align 4
  %16 = getelementptr inbounds nuw i8, ptr %1, i64 104
  store i32 %15, ptr %16, align 4
  %17 = getelementptr inbounds nuw i8, ptr %0, i64 112
  %18 = load ptr, ptr %17, align 8
  %19 = tail call fastcc noundef i32 @_ZN3ue2L9calc_jumpERKSt13unordered_mapIPKNS_15RoseInstructionEjSt4hashIS3_ESt8equal_toIS3_ESaISt4pairIKS3_jEEES3_S3_(ptr noundef nonnull align 8 dereferenceable(56) %3, ptr noundef %0, ptr noundef %18)
  %20 = getelementptr inbounds nuw i8, ptr %1, i64 108
  store i32 %19, ptr %20, align 4
  ret void
}